; Function Attrs: nounwind uwtable
define internal noundef ptr @wrap_sq_delitem(ptr noundef %0, ptr noundef readonly captures(none) %1, ptr noundef readonly captures(none) %2) #1 {
  %4 = getelementptr i8, ptr %1, i64 8
  %.val8.i = load ptr, ptr %4, align 8, !tbaa !116
  %.not.i = icmp eq ptr %.val8.i, @PyTuple_Type
  br i1 %.not.i, label %7, label %5

5:                                                ; preds = %3
  %6 = load ptr, ptr @PyExc_SystemError, align 8, !tbaa !105
  tail call void @PyErr_SetString(ptr noundef %6, ptr noundef nonnull @.str.369) #24
  br label %check_num_args.exit.thread

7:                                                ; preds = %3
  %8 = getelementptr i8, ptr %1, i64 16
  %.val7.i = load i64, ptr %8, align 8, !tbaa !132
  %9 = icmp eq i64 %.val7.i, 1
  br i1 %9, label %check_num_args.exit, label %10

10:                                               ; preds = %7
  %11 = load ptr, ptr @PyExc_TypeError, align 8, !tbaa !105
  %12 = tail call ptr (ptr, ptr, ...) @PyErr_Format(ptr noundef %11, ptr noundef nonnull @.str.370, i32 noundef 1, ptr noundef nonnull @.str.119, i64 noundef %.val7.i) #24
  br label %check_num_args.exit.thread

check_num_args.exit:                              ; preds = %7
  %13 = getelementptr inbounds nuw i8, ptr %1, i64 24
  %14 = load ptr, ptr %13, align 8, !tbaa !105
  %15 = load ptr, ptr @PyExc_OverflowError, align 8, !tbaa !105
  %16 = tail call i64 @PyNumber_AsSsize_t(ptr noundef %14, ptr noundef %15) #24
  %17 = icmp eq i64 %16, -1
  br i1 %17, label %18, label %20

18:                                               ; preds = %check_num_args.exit
  %19 = tail call ptr @PyErr_Occurred() #24
  %.not.i13 = icmp eq ptr %19, null
  br i1 %.not.i13, label %.thread.i, label %getindex.exit.thread

20:                                               ; preds = %check_num_args.exit
  %21 = icmp slt i64 %16, 0
  br i1 %21, label %.thread.i, label %getindex.exit.thread19

.thread.i:                                        ; preds = %20, %18
  %22 = getelementptr i8, ptr %0, i64 8
  %.val.i = load ptr, ptr %22, align 8, !tbaa !116
  %23 = getelementptr inbounds nuw i8, ptr %.val.i, i64 104
  %24 = load ptr, ptr %23, align 8, !tbaa !262
  %.not25.i = icmp eq ptr %24, null
  br i1 %.not25.i, label %getindex.exit, label %25

25:                                               ; preds = %.thread.i
  %26 = load ptr, ptr %24, align 8, !tbaa !401
  %.not26.i = icmp eq ptr %26, null
  br i1 %.not26.i, label %getindex.exit, label %27

27:                                               ; preds = %25
  %28 = tail call i64 %26(ptr noundef nonnull %0) #24
  %.fr.i = freeze i64 %28
  %29 = icmp sgt i64 %.fr.i, -1
  %.217.i = add nsw i64 %.fr.i, %16
  br i1 %29, label %getindex.exit, label %getindex.exit.thread

getindex.exit:                                    ; preds = %27, %.thread.i, %25
  %.0.i12 = phi i64 [ %16, %25 ], [ %16, %.thread.i ], [ %.217.i, %27 ]
  %30 = icmp eq i64 %.0.i12, -1
  br i1 %30, label %getindex.exit.thread, label %getindex.exit.thread19

getindex.exit.thread:                             ; preds = %27, %18, %getindex.exit
  %31 = tail call ptr @PyErr_Occurred() #24
  %.not10 = icmp eq ptr %31, null
  br i1 %.not10, label %getindex.exit.thread19, label %check_num_args.exit.thread

getindex.exit.thread19:                           ; preds = %20, %getindex.exit.thread, %getindex.exit
  %.0.i1217 = phi i64 [ -1, %getindex.exit.thread ], [ %.0.i12, %getindex.exit ], [ %16, %20 ]
  %32 = tail call i32 %2(ptr noundef %0, i64 noundef %.0.i1217, ptr noundef null) #24
  %33 = icmp eq i32 %32, -1
  br i1 %33, label %34, label %36

34:                                               ; preds = %getindex.exit.thread19
  %35 = tail call ptr @PyErr_Occurred() #24
  %.not11 = icmp eq ptr %35, null
  br i1 %.not11, label %36, label %check_num_args.exit.thread

36:                                               ; preds = %34, %getindex.exit.thread19
  br label %check_num_args.exit.thread

check_num_args.exit.thread:                       ; preds = %5, %10, %34, %getindex.exit.thread, %36
  %.0 = phi ptr [ @_Py_NoneStruct, %36 ], [ null, %getindex.exit.thread ], [ null, %34 ], [ null, %10 ], [ null, %5 ]
  ret ptr %.0
}